target datalayout = "e-m:e-p270:32:32-p271:32:32-p272:64:64-i64:64-i128:128-f80:128-n8:16:32:64-S128"
target triple = "x86_64-pc-linux-gnu"

%struct.prov_cipher_ctx_st = type { [16 x i8], [16 x i8], [16 x i8], ptr, %union.anon, i32, i64, i64, i64, i64, i32, i8, i32, ptr, i32, i64, i32, i64, i32, ptr, ptr, ptr }
%union.anon = type { ptr }

@.str = private unnamed_addr constant [62 x i8] c"../openssl/providers/implementations/ciphers/cipher_aes_wrp.c\00", align 1

; Function Attrs: nounwind uwtable
define internal ptr @aes_wrap_newctx(i64 noundef %0, i64 noundef %1, i64 noundef %2, i32 noundef %3, i64 noundef %4) #0 {
  %6 = alloca ptr, align 8
  %7 = alloca i64, align 8
  %8 = alloca i64, align 8
  %9 = alloca i64, align 8
  %10 = alloca i32, align 4
  %11 = alloca i64, align 8
  %12 = alloca ptr, align 8
  %13 = alloca ptr, align 8
  %14 = alloca i32, align 4
  store i64 %0, ptr %7, align 8, !tbaa !9
  store i64 %1, ptr %8, align 8, !tbaa !9
  store i64 %2, ptr %9, align 8, !tbaa !9
  store i32 %3, ptr %10, align 4, !tbaa !28
  store i64 %4, ptr %11, align 8, !tbaa !9
  call void @llvm.lifetime.start.p0(i64 8, ptr %12) #4
  call void @llvm.lifetime.start.p0(i64 8, ptr %13) #4
  %15 = call i32 @ossl_prov_is_running()
  %16 = icmp ne i32 %15, 0
  br i1 %16, label %18, label %17

17:                                               ; preds = %5
  store ptr null, ptr %6, align 8
  store i32 1, ptr %14, align 4
  br label %44

18:                                               ; preds = %5
  %19 = call noalias ptr @CRYPTO_zalloc(i64 noundef 448, ptr noundef @.str, i32 noundef 59)
  store ptr %19, ptr %12, align 8, !tbaa !15
  %20 = load ptr, ptr %12, align 8, !tbaa !15
  store ptr %20, ptr %13, align 8, !tbaa !25
  %21 = load ptr, ptr %13, align 8, !tbaa !25
  %22 = icmp ne ptr %21, null
  br i1 %22, label %23, label %42

23:                                               ; preds = %18
  %24 = load ptr, ptr %13, align 8, !tbaa !25
  %25 = load i64, ptr %7, align 8, !tbaa !9
  %26 = load i64, ptr %8, align 8, !tbaa !9
  %27 = load i64, ptr %9, align 8, !tbaa !9
  %28 = load i32, ptr %10, align 4, !tbaa !28
  %29 = load i64, ptr %11, align 8, !tbaa !9
  call void @ossl_cipher_generic_initkey(ptr noundef %24, i64 noundef %25, i64 noundef %26, i64 noundef %27, i32 noundef %28, i64 noundef %29, ptr noundef null, ptr noundef null)
  %30 = load ptr, ptr %13, align 8, !tbaa !25
  %31 = getelementptr inbounds nuw %struct.prov_cipher_ctx_st, ptr %30, i32 0, i32 7
  %32 = load i64, ptr %31, align 8, !tbaa !29
  %33 = icmp eq i64 %32, 4
  %34 = zext i1 %33 to i32
  %35 = load ptr, ptr %13, align 8, !tbaa !25
  %36 = getelementptr inbounds nuw %struct.prov_cipher_ctx_st, ptr %35, i32 0, i32 11
  %37 = trunc i32 %34 to i8
  %38 = load i8, ptr %36, align 4
  %39 = and i8 %37, 1
  %40 = and i8 %38, -2
  %41 = or i8 %40, %39
  store i8 %41, ptr %36, align 4
  br label %42

42:                                               ; preds = %23, %18
  %43 = load ptr, ptr %12, align 8, !tbaa !15
  store ptr %43, ptr %6, align 8
  store i32 1, ptr %14, align 4
  br label %44

44:                                               ; preds = %42, %17
  call void @llvm.lifetime.end.p0(i64 8, ptr %13) #4
  call void @llvm.lifetime.end.p0(i64 8, ptr %12) #4
  %45 = load ptr, ptr %6, align 8
  ret ptr %45
}

; Function Attrs: nounwind uwtable
define internal ptr @aes_256wrapinv_newctx(ptr noundef %0) #0 {
  %2 = alloca ptr, align 8
  store ptr %0, ptr %2, align 8, !tbaa !3
  %3 = call ptr @aes_wrap_newctx(i64 noundef 256, i64 noundef 64, i64 noundef 64, i32 noundef 65538, i64 noundef 514)
  ret ptr %3
}